; Function Attrs: nounwind uwtable
define noalias ptr @l_Lean_expandBrackedBinders(ptr noundef %0, ptr noundef %1, ptr noundef %2, ptr noundef readonly captures(none) %3, ptr noundef %4) local_unnamed_addr #0 {
  %6 = getelementptr inbounds nuw i8, ptr %3, i64 48
  %7 = load ptr, ptr %6, align 8, !tbaa !11
  %8 = tail call ptr @l_Lean_mkCIdentFrom(ptr noundef %7, ptr noundef %0, i8 noundef zeroext 0) #5
  tail call void @lean_inc_heartbeat() #5
  %9 = tail call noalias ptr @mi_malloc_small(i64 noundef 24) #5
  %10 = icmp eq ptr %9, null
  br i1 %10, label %11, label %lean_alloc_ctor.exit

11:                                               ; preds = %5
  tail call void @lean_internal_panic_out_of_memory() #6
  unreachable

lean_alloc_ctor.exit:                             ; preds = %5
  %12 = getelementptr inbounds nuw i8, ptr %9, i64 4
  store i32 1, ptr %9, align 4, !tbaa !5
  store i32 16908312, ptr %12, align 4
  %13 = getelementptr inbounds nuw i8, ptr %9, i64 8
  store ptr %1, ptr %13, align 8, !tbaa !11
  %14 = getelementptr inbounds nuw i8, ptr %9, i64 16
  store ptr inttoptr (i64 1 to ptr), ptr %14, align 8, !tbaa !11
  %15 = tail call ptr @lean_array_mk(ptr noundef nonnull %9) #5
  %16 = getelementptr i8, ptr %15, i64 8
  %.val.i = load i64, ptr %16, align 8, !tbaa !13
  %17 = shl i64 %.val.i, 1
  %18 = or disjoint i64 %17, 1
  %19 = inttoptr i64 %18 to ptr
  %20 = tail call noalias ptr @l_Lean_expandBrackedBindersAux_loop(ptr noundef %8, ptr noundef readonly %15, ptr noundef nonnull %19, ptr nonnull poison, ptr noundef %2, ptr noundef nonnull readonly %3, ptr noundef %4)
  %21 = ptrtoint ptr %15 to i64
  %22 = and i64 %21, 1
  %.not = icmp eq i64 %22, 0
  br i1 %.not, label %23, label %lean_dec.exit

23:                                               ; preds = %lean_alloc_ctor.exit
  %24 = load i32, ptr %15, align 4, !tbaa !5
  %25 = icmp sgt i32 %24, 1
  br i1 %25, label %26, label %28, !prof !10

26:                                               ; preds = %23
  %27 = add nsw i32 %24, -1
  store i32 %27, ptr %15, align 4, !tbaa !5
  br label %lean_dec.exit

28:                                               ; preds = %23
  %.not.i = icmp eq i32 %24, 0
  br i1 %.not.i, label %lean_dec.exit, label %29

29:                                               ; preds = %28
  tail call void @lean_dec_ref_cold(ptr noundef nonnull %15) #5
  br label %lean_dec.exit

lean_dec.exit:                                    ; preds = %29, %28, %26, %lean_alloc_ctor.exit
  ret ptr %20
}